CCS PCM C Compiler, Version 4.114, 93460303               09-dic.-25 17:44

               Filename: C:\Users\isaac\Desktop\pic16f877a\main.lst

               ROM used: 89 words (1%)
                         Largest free fragment is 2048
               RAM used: 7 (2%) at main() level
                         8 (2%) worst case
               Stack:    1 locations

*
0000:  MOVLW  00
0001:  MOVWF  0A
0002:  GOTO   019
0003:  NOP
.................... /* mi primer codigo en micro*/ 
.................... #include <16f877a.h> // direccion del pic  
.................... //////// Standard Header file for the PIC16F877A device //////////////// 
.................... #device PIC16F877A 
.................... #list 
....................  
.................... #fuses xt,nowdt  //mandamos a la mirda al perro guardian y usamos el ocilador 
.................... #use delay(clock=4M)//usamos el osolador de 4m 
0004:  MOVLW  22
0005:  MOVWF  04
0006:  BCF    03.7
0007:  MOVF   00,W
0008:  BTFSC  03.2
0009:  GOTO   018
000A:  MOVLW  01
000B:  MOVWF  78
000C:  CLRF   77
000D:  DECFSZ 77,F
000E:  GOTO   00D
000F:  DECFSZ 78,F
0010:  GOTO   00C
0011:  MOVLW  4A
0012:  MOVWF  77
0013:  DECFSZ 77,F
0014:  GOTO   013
0015:  GOTO   016
0016:  DECFSZ 00,F
0017:  GOTO   00A
0018:  RETURN
....................  
....................  
.................... // estas seran las salidas  
.................... #byte TRISB=0x86 
.................... #byte PORTB=0x06 
....................  
.................... //ahora usaremos bit un bit del puerto c en este casi el rc  
....................  
.................... #bit TRISC_RC2 = 0x87.2 
.................... #bit PORTC_RC2 = 0x07.2 
....................  
....................  
.................... int contador =0 ; 
.................... void main() 
.................... { 
0019:  CLRF   04
001A:  BCF    03.7
001B:  MOVLW  1F
001C:  ANDWF  03,F
001D:  CLRF   20
001E:  BSF    03.5
001F:  BSF    1F.0
0020:  BSF    1F.1
0021:  BSF    1F.2
0022:  BCF    1F.3
0023:  MOVLW  07
0024:  MOVWF  1C
....................   TRISB=0x00;  // configurtamos todo b como salidas  
0025:  CLRF   06
....................   PORTB=0x00; // iniciamos en low  
0026:  BCF    03.5
0027:  CLRF   06
....................    
....................   // configuramos entrada en este caso con 1  
....................    TRISC_RC2 = 1; 
0028:  BSF    03.5
0029:  BSF    07.2
....................   while(1){ 
....................    
....................   if(PORTC_RC2 == 1){ // port tiene ek estado del bit  
002A:  BCF    03.5
002B:  BTFSS  07.2
002C:  GOTO   02F
....................      contador = contador +1 ; 
002D:  MOVLW  01
002E:  ADDWF  20,F
....................   } 
....................    
....................    
....................   if(contador == 1){ 
002F:  DECFSZ 20,W
0030:  GOTO   03C
....................       
....................      PORTB = 0b00001111; 
0031:  MOVLW  0F
0032:  MOVWF  06
....................      delay_ms(500); 
0033:  MOVLW  02
0034:  MOVWF  21
0035:  MOVLW  FA
0036:  MOVWF  22
0037:  CALL   004
0038:  DECFSZ 21,F
0039:  GOTO   035
....................      PORTB = 0b00000000; 
003A:  CLRF   06
....................    
....................   }else if (contador == 2){ 
003B:  GOTO   057
003C:  MOVF   20,W
003D:  SUBLW  02
003E:  BTFSS  03.2
003F:  GOTO   055
....................        
....................      PORTB = 0b00001100; 
0040:  MOVLW  0C
0041:  MOVWF  06
....................      delay_ms(500); 
0042:  MOVLW  02
0043:  MOVWF  21
0044:  MOVLW  FA
0045:  MOVWF  22
0046:  CALL   004
0047:  DECFSZ 21,F
0048:  GOTO   044
....................      PORTB = 0b00000011; 
0049:  MOVLW  03
004A:  MOVWF  06
....................      delay_ms(500); 
004B:  MOVLW  02
004C:  MOVWF  21
004D:  MOVLW  FA
004E:  MOVWF  22
004F:  CALL   004
0050:  DECFSZ 21,F
0051:  GOTO   04D
....................      PORTB = 0b00001111; 
0052:  MOVLW  0F
0053:  MOVWF  06
....................    
....................   }else { 
0054:  GOTO   057
....................     PORTB = 0b00000000; 
0055:  CLRF   06
....................     contador = 0 ; 
0056:  CLRF   20
....................    
....................   } 
....................    
....................    
....................  
....................   
....................   } 
0057:  GOTO   02B
.................... } 
0058:  SLEEP

Configuration Fuses:
   Word  1: 3F71   XT NOWDT PUT BROWNOUT NOLVP NOCPD NOWRT NODEBUG NOPROTECT
