CCS PCM C Compiler, Version 4.114, 93460303               12-dic.-25 14:38

               Filename: C:\Users\isaac\Desktop\pic16f877a\rotacion\rotacion.lst

               ROM used: 81 words (1%)
                         Largest free fragment is 2048
               RAM used: 5 (1%) at main() level
                         8 (2%) worst case
               Stack:    1 locations

*
0000:  MOVLW  00
0001:  MOVWF  0A
0002:  GOTO   01B
0003:  NOP
.................... #include<16f877a.h> 
.................... //////// Standard Header file for the PIC16F877A device //////////////// 
.................... #device PIC16F877A 
.................... #list 
....................  
.................... #fuses xt,nowdt 
.................... #use delay(clock=4M) 
0004:  MOVLW  23
0005:  MOVWF  04
0006:  BCF    03.7
0007:  MOVF   00,W
0008:  BTFSC  03.2
0009:  GOTO   018
000A:  MOVLW  01
000B:  MOVWF  78
000C:  CLRF   77
000D:  DECFSZ 77,F
000E:  GOTO   00D
000F:  DECFSZ 78,F
0010:  GOTO   00C
0011:  MOVLW  4A
0012:  MOVWF  77
0013:  DECFSZ 77,F
0014:  GOTO   013
0015:  GOTO   016
0016:  DECFSZ 00,F
0017:  GOTO   00A
0018:  BCF    0A.3
0019:  BCF    0A.4
001A:  GOTO   04F (RETURN)
.................... #USE FAST_IO(C) 
.................... #USE FAST_IO(B) 
.................... void main(){ 
001B:  CLRF   04
001C:  BCF    03.7
001D:  MOVLW  1F
001E:  ANDWF  03,F
001F:  BSF    03.5
0020:  BSF    1F.0
0021:  BSF    1F.1
0022:  BSF    1F.2
0023:  BCF    1F.3
0024:  MOVLW  07
0025:  MOVWF  1C
....................     set_tris_b(0x00);        // Puerto b como salidas 
0026:  MOVLW  00
0027:  MOVWF  06
....................     set_tris_c(0b00000001);  // RC0 entrada, resto salidas 
0028:  MOVLW  01
0029:  MOVWF  07
....................      
....................     output_b(0x00);          // Inicia apagado 
002A:  BCF    03.5
002B:  CLRF   06
....................      
....................     int16 rotacion = 1 ; 
002C:  CLRF   22
002D:  MOVWF  21
....................     while(1){ 
....................         if(input(PIN_C0)){  
002E:  BTFSS  07.0
002F:  GOTO   03F
....................             //si es uno rota a la derecha 
....................             if (rotacion == 0 ){ 
0030:  MOVF   21,F
0031:  BTFSS  03.2
0032:  GOTO   039
0033:  MOVF   22,F
0034:  BTFSS  03.2
0035:  GOTO   039
....................                rotacion = 128; 
0036:  CLRF   22
0037:  MOVLW  80
0038:  MOVWF  21
....................             } 
....................             output_b(rotacion); 
0039:  MOVF   21,W
003A:  MOVWF  06
....................            rotacion = rotacion/2;    
003B:  BCF    03.0
003C:  RRF    22,F
003D:  RRF    21,F
....................         } 
....................         else { 
003E:  GOTO   04C
....................             //si no es uno rota a la izquierrds  
....................             if (rotacion == 256 ){ 
003F:  MOVF   21,F
0040:  BTFSS  03.2
0041:  GOTO   047
0042:  DECFSZ 22,W
0043:  GOTO   047
....................                rotacion = 1; 
0044:  CLRF   22
0045:  MOVLW  01
0046:  MOVWF  21
....................             } 
....................             output_b(rotacion); 
0047:  MOVF   21,W
0048:  MOVWF  06
....................            rotacion = rotacion*2; 
0049:  BCF    03.0
004A:  RLF    21,F
004B:  RLF    22,F
....................              
....................         } 
....................         delay_ms(200); 
004C:  MOVLW  C8
004D:  MOVWF  23
004E:  GOTO   004
....................     } 
004F:  GOTO   02E
.................... } 
0050:  SLEEP

Configuration Fuses:
   Word  1: 3F71   XT NOWDT PUT BROWNOUT NOLVP NOCPD NOWRT NODEBUG NOPROTECT
