CCS PCM C Compiler, Version 4.114, 93460303               13-dic.-25 15:05

               Filename: C:\Users\isaac\Desktop\pic16f877a\segmentos\seg.lst

               ROM used: 86 words (1%)
                         Largest free fragment is 2048
               RAM used: 6 (2%) at main() level
                         17 (5%) worst case
               Stack:    1 locations

*
0000:  MOVLW  00
0001:  MOVWF  0A
0002:  GOTO   01B
0003:  NOP
.................... #include<16f877a.h> 
.................... //////// Standard Header file for the PIC16F877A device //////////////// 
.................... #device PIC16F877A 
.................... #list 
....................  
.................... #fuses xt,nowdt 
.................... #use delay(clock=4M) 
0004:  MOVLW  2C
0005:  MOVWF  04
0006:  BCF    03.7
0007:  MOVF   00,W
0008:  BTFSC  03.2
0009:  GOTO   018
000A:  MOVLW  01
000B:  MOVWF  78
000C:  CLRF   77
000D:  DECFSZ 77,F
000E:  GOTO   00D
000F:  DECFSZ 78,F
0010:  GOTO   00C
0011:  MOVLW  4A
0012:  MOVWF  77
0013:  DECFSZ 77,F
0014:  GOTO   013
0015:  GOTO   016
0016:  DECFSZ 00,F
0017:  GOTO   00A
0018:  BCF    0A.3
0019:  BCF    0A.4
001A:  GOTO   04A (RETURN)
.................... #USE FAST_IO(C) 
.................... #USE FAST_IO(B) 
....................  
....................  
.................... void main(){ 
001B:  CLRF   04
001C:  BCF    03.7
001D:  MOVLW  1F
001E:  ANDWF  03,F
001F:  BSF    03.5
0020:  BSF    1F.0
0021:  BSF    1F.1
0022:  BSF    1F.2
0023:  BCF    1F.3
0024:  MOVLW  07
0025:  MOVWF  1C
....................     set_tris_b(0x00); // Puerto b como salidas 
0026:  MOVLW  00
0027:  MOVWF  06
....................     set_tris_c(0b00000010);// puerto co como salida 
0028:  MOVLW  02
0029:  MOVWF  07
....................      
....................     output_b(0x00);  // Inicia apagado 
002A:  BCF    03.5
002B:  CLRF   06
....................      
....................     int hexa[10] ={0x7E,0x30,0x6D,0x79,0x33,0x5B,0x1F,0x70,0x7F,0x7B}; // segmentos de el display 
002C:  MOVLW  7E
002D:  MOVWF  21
002E:  MOVLW  30
002F:  MOVWF  22
0030:  MOVLW  6D
0031:  MOVWF  23
0032:  MOVLW  79
0033:  MOVWF  24
0034:  MOVLW  33
0035:  MOVWF  25
0036:  MOVLW  5B
0037:  MOVWF  26
0038:  MOVLW  1F
0039:  MOVWF  27
003A:  MOVLW  70
003B:  MOVWF  28
003C:  MOVLW  7F
003D:  MOVWF  29
003E:  MOVLW  7B
003F:  MOVWF  2A
....................     int i =0 ; 
0040:  CLRF   2B
....................      
....................     // cualquier declaracion debe ir fuera del while  
....................      
....................     while(1){ 
....................      
....................     // cuando presionamos un boton se incrementa el comtador  
....................      
....................       if(input(PIN_C1)){ 
0041:  BTFSS  07.1
0042:  GOTO   054
....................               
....................            if(i<10){ 
0043:  MOVF   2B,W
0044:  SUBLW  09
0045:  BTFSS  03.0
0046:  GOTO   053
....................             
....................               delay_ms(200); 
0047:  MOVLW  C8
0048:  MOVWF  2C
0049:  GOTO   004
....................               output_b(hexa[i]);  // Números  
004A:  MOVLW  21
004B:  ADDWF  2B,W
004C:  MOVWF  04
004D:  BCF    03.7
004E:  MOVF   00,W
004F:  MOVWF  2C
0050:  MOVWF  06
....................               i++; 
0051:  INCF   2B,F
....................             
....................            }else{ 
0052:  GOTO   054
....................               i=0; 
0053:  CLRF   2B
....................            } 
....................       }    
....................     } 
0054:  GOTO   041
.................... } 
0055:  SLEEP

Configuration Fuses:
   Word  1: 3F71   XT NOWDT PUT BROWNOUT NOLVP NOCPD NOWRT NODEBUG NOPROTECT
